; Function Attrs: nounwind sspstrong uwtable
define internal i64 @ossl_ec_group_get_seed(i64 noundef %0) #0 {
  %2 = tail call ptr @rb_check_typeddata(i64 noundef %0, ptr noundef nonnull @ossl_ec_group_type) #7
  %3 = icmp eq ptr %2, null
  br i1 %3, label %4, label %6

4:                                                ; preds = %1
  %5 = load i64, ptr @eEC_GROUP, align 8, !tbaa !6
  tail call void (i64, ptr, ...) @ossl_raise(i64 noundef %5, ptr noundef nonnull @.str.59) #9
  unreachable

6:                                                ; preds = %1
  %7 = tail call i64 @EC_GROUP_get_seed_len(ptr noundef nonnull %2) #7
  %8 = icmp eq i64 %7, 0
  br i1 %8, label %12, label %9

9:                                                ; preds = %6
  %10 = tail call ptr @EC_GROUP_get0_seed(ptr noundef nonnull %2) #7
  %11 = tail call i64 @rb_str_new(ptr noundef %10, i64 noundef %7) #7
  br label %12

12:                                               ; preds = %6, %9
  %.0 = phi i64 [ %11, %9 ], [ 4, %6 ]
  ret i64 %.0
}